; Function Attrs: mustprogress nounwind uwtable
define hidden noundef ptr @_ZN8GraphKit14access_load_atEP4NodeS1_PK7TypePtrPK4Type9BasicTypem(ptr noundef nonnull align 8 dereferenceable(84) %0, ptr noundef %1, ptr noundef %2, ptr noundef %3, ptr noundef %4, i8 noundef zeroext %5, i64 noundef %6) local_unnamed_addr #0 align 2 {
  %8 = alloca %class.C2AccessValuePtr, align 8
  %9 = alloca %class.C2ParseAccess, align 8
  %10 = getelementptr inbounds i8, ptr %0, i64 40
  %11 = load ptr, ptr %10, align 8
  %12 = icmp eq ptr %11, null
  br i1 %12, label %._ZN8GraphKit7stoppedEv.exit.thread_crit_edge, label %_ZN8GraphKit7stoppedEv.exit

._ZN8GraphKit7stoppedEv.exit.thread_crit_edge:    ; preds = %7
  %.phi.trans.insert = getelementptr inbounds i8, ptr %0, i64 16
  %.pre = load ptr, ptr %.phi.trans.insert, align 8
  %.phi.trans.insert9 = getelementptr inbounds i8, ptr %.pre, i64 744
  %.pre10 = load ptr, ptr %.phi.trans.insert9, align 8
  br label %_ZN8GraphKit7stoppedEv.exit.thread

_ZN8GraphKit7stoppedEv.exit:                      ; preds = %7
  %13 = getelementptr inbounds i8, ptr %11, i64 8
  %14 = load ptr, ptr %13, align 8
  %15 = load ptr, ptr %14, align 8
  %16 = getelementptr inbounds i8, ptr %0, i64 16
  %17 = load ptr, ptr %16, align 8
  %18 = getelementptr inbounds i8, ptr %17, i64 744
  %19 = load ptr, ptr %18, align 8
  %20 = icmp eq ptr %15, %19
  br i1 %20, label %_ZN8GraphKit7stoppedEv.exit.thread, label %21

21:                                               ; preds = %_ZN8GraphKit7stoppedEv.exit
  store ptr %2, ptr %8, align 8
  %22 = getelementptr inbounds i8, ptr %8, i64 8
  store ptr %3, ptr %22, align 8
  %23 = or i64 %6, 274877906944
  %24 = getelementptr inbounds i8, ptr %9, i64 8
  store i64 %23, ptr %24, align 8
  %25 = getelementptr inbounds i8, ptr %9, i64 16
  store i8 %5, ptr %25, align 8
  %26 = getelementptr inbounds i8, ptr %9, i64 24
  store ptr %1, ptr %26, align 8
  %27 = getelementptr inbounds i8, ptr %9, i64 32
  store ptr %8, ptr %27, align 8
  %28 = getelementptr inbounds i8, ptr %9, i64 40
  store ptr null, ptr %28, align 8
  %29 = getelementptr inbounds i8, ptr %9, i64 48
  store i8 0, ptr %29, align 8
  store ptr getelementptr inbounds inrange(-16, 32) (i8, ptr @_ZTV13C2ParseAccess, i64 16), ptr %9, align 8
  %30 = getelementptr inbounds i8, ptr %9, i64 56
  store ptr %0, ptr %30, align 8
  call void @_ZN8C2Access16fixup_decoratorsEv(ptr noundef nonnull align 8 dereferenceable(49) %9) #13
  %31 = load i64, ptr %24, align 8
  %32 = and i64 %31, 2048
  %.not = icmp eq i64 %32, 0
  %33 = getelementptr inbounds i8, ptr %0, i64 72
  %34 = load ptr, ptr %33, align 8
  br i1 %.not, label %37, label %35

35:                                               ; preds = %21
  %36 = call noundef ptr @_ZNK12BarrierSetC27load_atER8C2AccessPK4Type(ptr noundef nonnull align 8 dereferenceable(8) %34, ptr noundef nonnull align 8 dereferenceable(49) %9, ptr noundef %4) #13
  br label %_ZN8GraphKit7stoppedEv.exit.thread

37:                                               ; preds = %21
  %38 = load ptr, ptr %34, align 8
  %39 = getelementptr inbounds i8, ptr %38, i64 64
  %40 = load ptr, ptr %39, align 8
  %41 = call noundef ptr %40(ptr noundef nonnull align 8 dereferenceable(8) %34, ptr noundef nonnull align 8 dereferenceable(49) %9, ptr noundef %4) #13
  br label %_ZN8GraphKit7stoppedEv.exit.thread

_ZN8GraphKit7stoppedEv.exit.thread:               ; preds = %_ZN8GraphKit7stoppedEv.exit, %._ZN8GraphKit7stoppedEv.exit.thread_crit_edge, %37, %35
  %.0 = phi ptr [ %36, %35 ], [ %41, %37 ], [ %.pre10, %._ZN8GraphKit7stoppedEv.exit.thread_crit_edge ], [ %19, %_ZN8GraphKit7stoppedEv.exit ]
  ret ptr %.0
}